target datalayout = "e-m:e-p270:32:32-p271:32:32-p272:64:64-i64:64-i128:128-f80:128-n8:16:32:64-S128"
target triple = "x86_64-pc-linux-gnu"

%struct.cLLog_private = type { i32, i32, [5 x i8], [5 x i8], [20 x i8], i32, i32, %struct.cCLLog_timeStamp_t, [20 x i8], i8, i8, i8, i8, i8, i8, i32, i32, i32, [7 x ptr], %struct.cCLLog_timeStamp_t }
%struct.cCLLog_timeStamp_t = type { i64, i16 }
%struct.tm = type { i32, i32, i32, i32, i32, i32, i32, i32, i32, i64, ptr }

@.str.30 = private unnamed_addr constant [20 x i8] c"%4u%2u%2uT%2u%2u%2u\00", align 1
@.str.31 = private unnamed_addr constant [24 x i8] c"cllog: time is too long\00", align 1

; Function Attrs: alwaysinline nounwind
define internal ptr @memcpy.inline(ptr noalias %0, ptr noalias %1, i64 %2) #5 {
  %4 = alloca ptr, align 8
  %5 = alloca ptr, align 8
  %6 = alloca i64, align 8
  store ptr %0, ptr %4, align 8
  store ptr %1, ptr %5, align 8
  store i64 %2, ptr %6, align 8
  %7 = load ptr, ptr %4, align 8
  %8 = load ptr, ptr %5, align 8
  %9 = load i64, ptr %6, align 8
  %10 = load ptr, ptr %4, align 8
  %11 = call i64 @llvm.objectsize.i64.p0(ptr %10, i1 false, i1 true, i1 true)
  %12 = call ptr @__memcpy_chk(ptr noundef %7, ptr noundef %8, i64 noundef %9, i64 noundef %11) #13
  ret ptr %12
}

; Function Attrs: nounwind null_pointer_is_valid sspstrong uwtable
define internal zeroext i1 @checked_strcpy(ptr noundef %0, i64 noundef %1, ptr noundef %2) #8 {
  %4 = alloca i1, align 1
  %5 = alloca ptr, align 8
  %6 = alloca i64, align 8
  %7 = alloca ptr, align 8
  %8 = alloca i64, align 8
  %9 = alloca i32, align 4
  store ptr %0, ptr %5, align 8
  store i64 %1, ptr %6, align 8
  store ptr %2, ptr %7, align 8
  call void @llvm.lifetime.start.p0(i64 8, ptr %8) #13
  %10 = load ptr, ptr %7, align 8
  %11 = call i64 @strlen(ptr noundef %10) #16
  %12 = add i64 %11, 1
  store i64 %12, ptr %8, align 8
  %13 = load i64, ptr %8, align 8
  %14 = load i64, ptr %6, align 8
  %15 = icmp ugt i64 %13, %14
  br i1 %15, label %16, label %17

16:                                               ; preds = %3
  store i1 false, ptr %4, align 1
  store i32 1, ptr %9, align 4
  br label %22

17:                                               ; preds = %3
  %18 = load ptr, ptr %5, align 8
  %19 = load ptr, ptr %7, align 8
  %20 = load i64, ptr %8, align 8
  %21 = call ptr @memcpy.inline(ptr noundef %18, ptr noundef %19, i64 noundef %20) #13
  store i1 true, ptr %4, align 1
  store i32 1, ptr %9, align 4
  br label %22

22:                                               ; preds = %17, %16
  call void @llvm.lifetime.end.p0(i64 8, ptr %8) #13
  %23 = load i1, ptr %4, align 1
  ret i1 %23
}

; Function Attrs: alwaysinline nounwind
define internal ptr @memset.inline(ptr %0, i32 %1, i64 %2) #5 {
  %4 = alloca ptr, align 8
  %5 = alloca i32, align 4
  %6 = alloca i64, align 8
  store ptr %0, ptr %4, align 8
  store i32 %1, ptr %5, align 4
  store i64 %2, ptr %6, align 8
  %7 = load ptr, ptr %4, align 8
  %8 = load i32, ptr %5, align 4
  %9 = load i64, ptr %6, align 8
  %10 = load ptr, ptr %4, align 8
  %11 = call i64 @llvm.objectsize.i64.p0(ptr %10, i1 false, i1 true, i1 true)
  %12 = call ptr @__memset_chk(ptr noundef %7, i32 noundef %8, i64 noundef %9, i64 noundef %11) #13
  ret ptr %12
}

; Function Attrs: null_pointer_is_valid sspstrong uwtable
define internal zeroext i1 @parseLogFileHeaderLine_time(ptr noundef %0, ptr noundef %1, ptr noundef %2, ptr noundef %3) #0 {
  %5 = alloca i1, align 1
  %6 = alloca ptr, align 8
  %7 = alloca ptr, align 8
  %8 = alloca ptr, align 8
  %9 = alloca ptr, align 8
  %10 = alloca %struct.tm, align 8
  %11 = alloca i32, align 4
  store ptr %0, ptr %6, align 8
  store ptr %1, ptr %7, align 8
  store ptr %2, ptr %8, align 8
  store ptr %3, ptr %9, align 8
  call void @llvm.lifetime.start.p0(i64 56, ptr %10) #13
  %12 = call ptr @memset.inline(ptr noundef %10, i32 noundef 0, i64 noundef 56) #13
  %13 = load ptr, ptr %7, align 8
  %14 = getelementptr inbounds nuw %struct.tm, ptr %10, i32 0, i32 5
  %15 = getelementptr inbounds nuw %struct.tm, ptr %10, i32 0, i32 4
  %16 = getelementptr inbounds nuw %struct.tm, ptr %10, i32 0, i32 3
  %17 = getelementptr inbounds nuw %struct.tm, ptr %10, i32 0, i32 2
  %18 = getelementptr inbounds nuw %struct.tm, ptr %10, i32 0, i32 1
  %19 = getelementptr inbounds nuw %struct.tm, ptr %10, i32 0, i32 0
  %20 = call i32 (ptr, ptr, ...) @__isoc99_sscanf(ptr noundef %13, ptr noundef @.str.30, ptr noundef %14, ptr noundef %15, ptr noundef %16, ptr noundef %17, ptr noundef %18, ptr noundef %19) #13
  %21 = getelementptr inbounds nuw %struct.tm, ptr %10, i32 0, i32 4
  %22 = load i32, ptr %21, align 8
  %23 = sub i32 %22, 1
  store i32 %23, ptr %21, align 8
  %24 = getelementptr inbounds nuw %struct.tm, ptr %10, i32 0, i32 5
  %25 = load i32, ptr %24, align 4
  %26 = sub i32 %25, 1900
  store i32 %26, ptr %24, align 4
  %27 = call i64 @mktime(ptr noundef %10) #13
  %28 = load ptr, ptr %6, align 8
  %29 = getelementptr inbounds nuw %struct.cLLog_private, ptr %28, i32 0, i32 7
  %30 = getelementptr inbounds nuw %struct.cCLLog_timeStamp_t, ptr %29, i32 0, i32 0
  store i64 %27, ptr %30, align 8
  %31 = load ptr, ptr %6, align 8
  %32 = getelementptr inbounds nuw %struct.cLLog_private, ptr %31, i32 0, i32 7
  %33 = getelementptr inbounds nuw %struct.cCLLog_timeStamp_t, ptr %32, i32 0, i32 1
  store i16 0, ptr %33, align 8
  %34 = load ptr, ptr %6, align 8
  %35 = getelementptr inbounds nuw %struct.cLLog_private, ptr %34, i32 0, i32 8
  %36 = getelementptr inbounds [20 x i8], ptr %35, i64 0, i64 0
  %37 = load ptr, ptr %7, align 8
  %38 = call zeroext i1 @checked_strcpy(ptr noundef %36, i64 noundef 20, ptr noundef %37)
  br i1 %38, label %43, label %39

39:                                               ; preds = %4
  %40 = load ptr, ptr %8, align 8
  store i32 -13, ptr %40, align 4
  %41 = call noalias ptr @g_strdup(ptr noundef @.str.31)
  %42 = load ptr, ptr %9, align 8
  store ptr %41, ptr %42, align 8
  store i1 false, ptr %5, align 1
  store i32 1, ptr %11, align 4
  br label %44

43:                                               ; preds = %4
  store i1 true, ptr %5, align 1
  store i32 1, ptr %11, align 4
  br label %44

44:                                               ; preds = %43, %39
  call void @llvm.lifetime.end.p0(i64 56, ptr %10) #13
  %45 = load i1, ptr %5, align 1
  ret i1 %45
}