; Function Attrs: null_pointer_is_valid sspstrong uwtable
define internal noundef zeroext i1 @parseLogFileHeaderLine_time(ptr noundef initializes((48, 58)) %0, ptr noundef readonly captures(none) %1, ptr noundef writeonly captures(none) %2, ptr noundef writeonly captures(none) %3) #0 {
  %5 = alloca %struct.tm, align 8
  call void @llvm.lifetime.start.p0(i64 56, ptr nonnull %5) #10
  call void @llvm.memset.p0.i64(ptr noundef nonnull align 8 dereferenceable(56) %5, i8 noundef 0, i64 noundef 56, i1 noundef false) #10
  %6 = getelementptr inbounds nuw i8, ptr %5, i64 20
  %7 = getelementptr inbounds nuw i8, ptr %5, i64 16
  %8 = getelementptr inbounds nuw i8, ptr %5, i64 12
  %9 = getelementptr inbounds nuw i8, ptr %5, i64 8
  %10 = getelementptr inbounds nuw i8, ptr %5, i64 4
  %11 = call i32 (ptr, ptr, ...) @__isoc99_sscanf(ptr noundef %1, ptr noundef nonnull @.str.30, ptr noundef nonnull %6, ptr noundef nonnull %7, ptr noundef nonnull %8, ptr noundef nonnull %9, ptr noundef nonnull %10, ptr noundef nonnull %5) #10
  %12 = load i32, ptr %7, align 8
  %13 = add i32 %12, -1
  store i32 %13, ptr %7, align 8
  %14 = load i32, ptr %6, align 4
  %15 = add i32 %14, -1900
  store i32 %15, ptr %6, align 4
  %16 = call i64 @mktime(ptr noundef nonnull %5) #10
  %17 = getelementptr inbounds nuw i8, ptr %0, i64 48
  store i64 %16, ptr %17, align 8
  %18 = getelementptr inbounds nuw i8, ptr %0, i64 56
  store i16 0, ptr %18, align 8
  %19 = call i64 @strlen(ptr noundef readonly %1) #12
  %20 = add i64 %19, 1
  %21 = icmp ult i64 %20, 21
  br i1 %21, label %checked_strcpy.exit.thread, label %checked_strcpy.exit

checked_strcpy.exit.thread:                       ; preds = %4
  %22 = getelementptr inbounds nuw i8, ptr %0, i64 64
  call void @llvm.memcpy.p0.p0.i64(ptr noundef nonnull align 1 %22, ptr noundef readonly align 1 %1, i64 noundef range(i64 0, 256) %20, i1 noundef false) #10
  br label %24

checked_strcpy.exit:                              ; preds = %4
  store i32 -13, ptr %2, align 4
  %23 = call noalias ptr @g_strdup(ptr noundef nonnull @.str.31)
  store ptr %23, ptr %3, align 8
  br label %24

24:                                               ; preds = %checked_strcpy.exit.thread, %checked_strcpy.exit
  call void @llvm.lifetime.end.p0(i64 56, ptr nonnull %5) #10
  ret i1 %21
}